target datalayout = "e-m:e-p270:32:32-p271:32:32-p272:64:64-i64:64-i128:128-f80:128-n8:16:32:64-S128"
target triple = "x86_64-unknown-linux-gnu"

%struct.BlockCopyCallState = type { ptr, i64, i64, i32, i64, i8, ptr, ptr, ptr, i8, %struct.QemuCoSleep, i8, %struct.anon.3, i8, i32 }
%struct.QemuCoSleep = type { ptr }
%struct.anon.3 = type { ptr, ptr }

@.str.1 = private unnamed_addr constant [27 x i8] c"../qemu/block/block-copy.c\00", align 1
@.str.3 = private unnamed_addr constant [18 x i8] c"ret == -ETIMEDOUT\00", align 1
@__PRETTY_FUNCTION__.block_copy = private unnamed_addr constant [104 x i8] c"int block_copy(BlockCopyState *, int64_t, int64_t, _Bool, uint64_t, BlockCopyAsyncCallbackFunc, void *)\00", align 1
@__func__.block_copy_call_cancel = private unnamed_addr constant [23 x i8] c"block_copy_call_cancel\00", align 1

; Function Attrs: nounwind sspstrong uwtable
define dso_local void @block_copy_kick(ptr noundef %call_state) #0 {
entry:
  %call_state.addr = alloca ptr, align 8
  store ptr %call_state, ptr %call_state.addr, align 8
  %0 = load ptr, ptr %call_state.addr, align 8
  %sleep = getelementptr inbounds %struct.BlockCopyCallState, ptr %0, i32 0, i32 10
  call void @qemu_co_sleep_wake(ptr noundef %sleep)
  ret void
}

; Function Attrs: nounwind sspstrong uwtable
define dso_local void @block_copy_call_cancel(ptr noundef %call_state) #0 {
entry:
  %call_state.addr = alloca ptr, align 8
  %.atomictmp = alloca i8, align 1
  store ptr %call_state, ptr %call_state.addr, align 8
  br label %do.body

do.body:                                          ; preds = %entry
  br label %while.cond

while.cond:                                       ; preds = %do.end, %do.body
  br i1 false, label %while.body, label %while.end

while.body:                                       ; preds = %while.cond
  br label %do.body1

do.body1:                                         ; preds = %while.body
  call void @g_assertion_message_expr(ptr noundef null, ptr noundef @.str.1, i32 noundef 1018, ptr noundef @__func__.block_copy_call_cancel, ptr noundef null) #10
  unreachable

do.end:                                           ; No predecessors!
  br label %while.cond

while.end:                                        ; preds = %while.cond
  %0 = load ptr, ptr %call_state.addr, align 8
  %cancelled = getelementptr inbounds %struct.BlockCopyCallState, ptr %0, i32 0, i32 11
  store i8 1, ptr %.atomictmp, align 1
  %1 = load i8, ptr %.atomictmp, align 1
  store atomic i8 %1, ptr %cancelled monotonic, align 8
  br label %do.end2

do.end2:                                          ; preds = %while.end
  %2 = load ptr, ptr %call_state.addr, align 8
  call void @block_copy_kick(ptr noundef %2)
  ret void
}

; Function Attrs: nounwind sspstrong uwtable
define dso_local i32 @block_copy(ptr noundef %s, i64 noundef %start, i64 noundef %bytes, i1 noundef zeroext %ignore_ratelimit, i64 noundef %timeout_ns, ptr noundef %cb, ptr noundef %cb_opaque) #0 {
entry:
  %retval = alloca i32, align 4
  %s.addr = alloca ptr, align 8
  %start.addr = alloca i64, align 8
  %bytes.addr = alloca i64, align 8
  %ignore_ratelimit.addr = alloca i8, align 1
  %timeout_ns.addr = alloca i64, align 8
  %cb.addr = alloca ptr, align 8
  %cb_opaque.addr = alloca ptr, align 8
  %ret = alloca i32, align 4
  %call_state = alloca ptr, align 8
  %.compoundliteral = alloca %struct.BlockCopyCallState, align 8
  store ptr %s, ptr %s.addr, align 8
  store i64 %start, ptr %start.addr, align 8
  store i64 %bytes, ptr %bytes.addr, align 8
  %frombool = zext i1 %ignore_ratelimit to i8
  store i8 %frombool, ptr %ignore_ratelimit.addr, align 1
  store i64 %timeout_ns, ptr %timeout_ns.addr, align 8
  store ptr %cb, ptr %cb.addr, align 8
  store ptr %cb_opaque, ptr %cb_opaque.addr, align 8
  %call = call noalias ptr @g_malloc_n(i64 noundef 1, i64 noundef 120) #9
  store ptr %call, ptr %call_state, align 8
  %0 = load ptr, ptr %call_state, align 8
  %s1 = getelementptr inbounds %struct.BlockCopyCallState, ptr %.compoundliteral, i32 0, i32 0
  %1 = load ptr, ptr %s.addr, align 8
  store ptr %1, ptr %s1, align 8
  %offset = getelementptr inbounds %struct.BlockCopyCallState, ptr %.compoundliteral, i32 0, i32 1
  %2 = load i64, ptr %start.addr, align 8
  store i64 %2, ptr %offset, align 8
  %bytes2 = getelementptr inbounds %struct.BlockCopyCallState, ptr %.compoundliteral, i32 0, i32 2
  %3 = load i64, ptr %bytes.addr, align 8
  store i64 %3, ptr %bytes2, align 8
  %max_workers = getelementptr inbounds %struct.BlockCopyCallState, ptr %.compoundliteral, i32 0, i32 3
  store i32 64, ptr %max_workers, align 8
  %max_chunk = getelementptr inbounds %struct.BlockCopyCallState, ptr %.compoundliteral, i32 0, i32 4
  store i64 0, ptr %max_chunk, align 8
  %ignore_ratelimit3 = getelementptr inbounds %struct.BlockCopyCallState, ptr %.compoundliteral, i32 0, i32 5
  %4 = load i8, ptr %ignore_ratelimit.addr, align 1
  %tobool = trunc i8 %4 to i1
  %frombool4 = zext i1 %tobool to i8
  store i8 %frombool4, ptr %ignore_ratelimit3, align 8
  %cb5 = getelementptr inbounds %struct.BlockCopyCallState, ptr %.compoundliteral, i32 0, i32 6
  %5 = load ptr, ptr %cb.addr, align 8
  store ptr %5, ptr %cb5, align 8
  %cb_opaque6 = getelementptr inbounds %struct.BlockCopyCallState, ptr %.compoundliteral, i32 0, i32 7
  %6 = load ptr, ptr %cb_opaque.addr, align 8
  store ptr %6, ptr %cb_opaque6, align 8
  %co = getelementptr inbounds %struct.BlockCopyCallState, ptr %.compoundliteral, i32 0, i32 8
  store ptr null, ptr %co, align 8
  %finished = getelementptr inbounds %struct.BlockCopyCallState, ptr %.compoundliteral, i32 0, i32 9
  store i8 0, ptr %finished, align 8
  %sleep = getelementptr inbounds %struct.BlockCopyCallState, ptr %.compoundliteral, i32 0, i32 10
  call void @llvm.memset.p0.i64(ptr align 8 %sleep, i8 0, i64 8, i1 false)
  %cancelled = getelementptr inbounds %struct.BlockCopyCallState, ptr %.compoundliteral, i32 0, i32 11
  store i8 0, ptr %cancelled, align 8
  %list = getelementptr inbounds %struct.BlockCopyCallState, ptr %.compoundliteral, i32 0, i32 12
  call void @llvm.memset.p0.i64(ptr align 8 %list, i8 0, i64 16, i1 false)
  %error_is_read = getelementptr inbounds %struct.BlockCopyCallState, ptr %.compoundliteral, i32 0, i32 13
  store i8 0, ptr %error_is_read, align 8
  %ret7 = getelementptr inbounds %struct.BlockCopyCallState, ptr %.compoundliteral, i32 0, i32 14
  store i32 0, ptr %ret7, align 4
  call void @llvm.memcpy.p0.p0.i64(ptr align 8 %0, ptr align 8 %.compoundliteral, i64 120, i1 false)
  %7 = load ptr, ptr %call_state, align 8
  %8 = load i64, ptr %timeout_ns.addr, align 8
  %call8 = call i32 @qemu_co_timeout(ptr noundef @block_copy_async_co_entry, ptr noundef %7, i64 noundef %8, ptr noundef @g_free)
  store i32 %call8, ptr %ret, align 4
  %9 = load i32, ptr %ret, align 4
  %cmp = icmp slt i32 %9, 0
  br i1 %cmp, label %if.then, label %if.end11

if.then:                                          ; preds = %entry
  %10 = load i32, ptr %ret, align 4
  %cmp9 = icmp eq i32 %10, -110
  br i1 %cmp9, label %if.then10, label %if.else

if.then10:                                        ; preds = %if.then
  br label %if.end

if.else:                                          ; preds = %if.then
  call void @__assert_fail(ptr noundef @.str.3, ptr noundef @.str.1, i32 noundef 932, ptr noundef @__PRETTY_FUNCTION__.block_copy) #8
  unreachable

if.end:                                           ; preds = %if.then10
  %11 = load ptr, ptr %call_state, align 8
  call void @block_copy_call_cancel(ptr noundef %11)
  %12 = load i32, ptr %ret, align 4
  store i32 %12, ptr %retval, align 4
  br label %return

if.end11:                                         ; preds = %entry
  %13 = load ptr, ptr %call_state, align 8
  %ret12 = getelementptr inbounds %struct.BlockCopyCallState, ptr %13, i32 0, i32 14
  %14 = load i32, ptr %ret12, align 4
  store i32 %14, ptr %ret, align 4
  %15 = load ptr, ptr %call_state, align 8
  call void @g_free(ptr noundef %15)
  %16 = load i32, ptr %ret, align 4
  store i32 %16, ptr %retval, align 4
  br label %return

return:                                           ; preds = %if.end11, %if.end
  %17 = load i32, ptr %retval, align 4
  ret i32 %17
}