; Function Attrs: nounwind sspstrong uwtable
define dso_local i32 @block_copy(ptr noundef %s, i64 noundef %start, i64 noundef %bytes, i1 noundef zeroext %ignore_ratelimit, i64 noundef %timeout_ns, ptr noundef %cb, ptr noundef %cb_opaque) #0 {
entry:
  %.compoundliteral.sroa.13 = alloca [23 x i8], align 1
  %frombool = zext i1 %ignore_ratelimit to i8
  %call = tail call noalias dereferenceable_or_null(120) ptr @g_malloc_n(i64 noundef 1, i64 noundef 120) #16
  %.compoundliteral.sroa.13.7.list.sroa_idx12 = getelementptr inbounds nuw i8, ptr %.compoundliteral.sroa.13, i64 7
  call void @llvm.memset.p0.i64(ptr noundef nonnull align 1 dereferenceable(16) %.compoundliteral.sroa.13.7.list.sroa_idx12, i8 0, i64 16, i1 false)
  store ptr %s, ptr %call, align 8
  %.compoundliteral.sroa.2.0..sroa_idx = getelementptr inbounds nuw i8, ptr %call, i64 8
  store i64 %start, ptr %.compoundliteral.sroa.2.0..sroa_idx, align 8
  %.compoundliteral.sroa.3.0..sroa_idx = getelementptr inbounds nuw i8, ptr %call, i64 16
  store i64 %bytes, ptr %.compoundliteral.sroa.3.0..sroa_idx, align 8
  %.compoundliteral.sroa.4.0..sroa_idx = getelementptr inbounds nuw i8, ptr %call, i64 24
  store i32 64, ptr %.compoundliteral.sroa.4.0..sroa_idx, align 8
  %.compoundliteral.sroa.51.0..sroa_idx = getelementptr inbounds nuw i8, ptr %call, i64 32
  store i64 0, ptr %.compoundliteral.sroa.51.0..sroa_idx, align 8
  %.compoundliteral.sroa.6.0..sroa_idx = getelementptr inbounds nuw i8, ptr %call, i64 40
  store i8 %frombool, ptr %.compoundliteral.sroa.6.0..sroa_idx, align 8
  %.compoundliteral.sroa.72.0..sroa_idx = getelementptr inbounds nuw i8, ptr %call, i64 48
  store ptr %cb, ptr %.compoundliteral.sroa.72.0..sroa_idx, align 8
  %.compoundliteral.sroa.8.0..sroa_idx = getelementptr inbounds nuw i8, ptr %call, i64 56
  store ptr %cb_opaque, ptr %.compoundliteral.sroa.8.0..sroa_idx, align 8
  %.compoundliteral.sroa.9.0..sroa_idx = getelementptr inbounds nuw i8, ptr %call, i64 64
  store ptr null, ptr %.compoundliteral.sroa.9.0..sroa_idx, align 8
  %.compoundliteral.sroa.10.0..sroa_idx = getelementptr inbounds nuw i8, ptr %call, i64 72
  store i8 0, ptr %.compoundliteral.sroa.10.0..sroa_idx, align 8
  %.compoundliteral.sroa.11.sroa.1.0..compoundliteral.sroa.11.0..sroa_idx.sroa_idx = getelementptr inbounds nuw i8, ptr %call, i64 80
  store i64 0, ptr %.compoundliteral.sroa.11.sroa.1.0..compoundliteral.sroa.11.0..sroa_idx.sroa_idx, align 1
  %.compoundliteral.sroa.12.0..sroa_idx = getelementptr inbounds nuw i8, ptr %call, i64 88
  store i8 0, ptr %.compoundliteral.sroa.12.0..sroa_idx, align 8
  %.compoundliteral.sroa.13.0..sroa_idx = getelementptr inbounds nuw i8, ptr %call, i64 89
  call void @llvm.memcpy.p0.p0.i64(ptr noundef nonnull align 1 dereferenceable(23) %.compoundliteral.sroa.13.0..sroa_idx, ptr noundef nonnull align 1 dereferenceable(23) %.compoundliteral.sroa.13, i64 23, i1 false)
  %.compoundliteral.sroa.14.0..sroa_idx = getelementptr inbounds nuw i8, ptr %call, i64 112
  store i8 0, ptr %.compoundliteral.sroa.14.0..sroa_idx, align 8
  %.compoundliteral.sroa.153.0..sroa_idx = getelementptr inbounds nuw i8, ptr %call, i64 116
  store i32 0, ptr %.compoundliteral.sroa.153.0..sroa_idx, align 4
  %call8 = tail call i32 @qemu_co_timeout(ptr noundef nonnull @block_copy_async_co_entry, ptr noundef nonnull %call, i64 noundef %timeout_ns, ptr noundef nonnull @g_free) #14
  %cmp = icmp slt i32 %call8, 0
  br i1 %cmp, label %if.then, label %if.end11

if.then:                                          ; preds = %entry
  %cmp9 = icmp eq i32 %call8, -110
  br i1 %cmp9, label %if.end, label %if.else

if.else:                                          ; preds = %if.then
  tail call void @__assert_fail(ptr noundef nonnull @.str.3, ptr noundef nonnull @.str.1, i32 noundef 932, ptr noundef nonnull @__PRETTY_FUNCTION__.block_copy) #15
  unreachable

if.end:                                           ; preds = %if.then
  store atomic i8 1, ptr %.compoundliteral.sroa.12.0..sroa_idx monotonic, align 8
  tail call void @qemu_co_sleep_wake(ptr noundef nonnull %.compoundliteral.sroa.11.sroa.1.0..compoundliteral.sroa.11.0..sroa_idx.sroa_idx) #14
  br label %return

if.end11:                                         ; preds = %entry
  %0 = load i32, ptr %.compoundliteral.sroa.153.0..sroa_idx, align 4
  tail call void @g_free(ptr noundef nonnull %call) #14
  br label %return

return:                                           ; preds = %if.end11, %if.end
  %retval.0 = phi i32 [ -110, %if.end ], [ %0, %if.end11 ]
  ret i32 %retval.0
}